Archive member included to satisfy reference by file (symbol)

../lib/lib.a(syscallib.o)     merge.o (exit)
../lib/lib.a(vsprintf.o)      merge.o (printf)
../lib/lib.a(mathfunc.o)      ../lib/lib.a(vsprintf.o) (modf)
../lib/lib.a(strtol.o)        merge.o (atoi)
../lib/lib.a(library.o)       ../lib/lib.a(vsprintf.o) (memcpy)
../lib/lib.a(malloc.o)        ../lib/lib.a(library.o) (malloc)
../lib/lib.a(string.o)        ../lib/lib.a(vsprintf.o) (strlen)
../lib/lib.a(pow.o)           ../lib/lib.a(mathfunc.o) (_abs)
../lib/lib.a(klib.o)          ../lib/lib.a(malloc.o) (bzero)

Discarded input sections

 .group         0x0000000000000000        0x8 merge.o
 .group         0x0000000000000000        0x8 merge.o
 .group         0x0000000000000000        0x8 merge.o
 .group         0x0000000000000000        0x8 ../lib/lib.a(vsprintf.o)
 .group         0x0000000000000000        0x8 ../lib/lib.a(vsprintf.o)
 .group         0x0000000000000000        0x8 ../lib/lib.a(vsprintf.o)
 .text.__x86.get_pc_thunk.bx
                0x0000000000000000        0x4 ../lib/lib.a(vsprintf.o)
 .group         0x0000000000000000        0x8 ../lib/lib.a(mathfunc.o)
 .group         0x0000000000000000        0x8 ../lib/lib.a(mathfunc.o)
 .text.__x86.get_pc_thunk.ax
                0x0000000000000000        0x4 ../lib/lib.a(mathfunc.o)
 .text.__x86.get_pc_thunk.bx
                0x0000000000000000        0x4 ../lib/lib.a(mathfunc.o)
 .group         0x0000000000000000        0x8 ../lib/lib.a(strtol.o)
 .group         0x0000000000000000        0x8 ../lib/lib.a(strtol.o)
 .text.__x86.get_pc_thunk.ax
                0x0000000000000000        0x4 ../lib/lib.a(strtol.o)
 .text.__x86.get_pc_thunk.bx
                0x0000000000000000        0x4 ../lib/lib.a(strtol.o)
 .group         0x0000000000000000        0x8 ../lib/lib.a(library.o)
 .group         0x0000000000000000        0x8 ../lib/lib.a(library.o)
 .text.__x86.get_pc_thunk.ax
                0x0000000000000000        0x4 ../lib/lib.a(library.o)
 .text.__x86.get_pc_thunk.bx
                0x0000000000000000        0x4 ../lib/lib.a(library.o)
 .group         0x0000000000000000        0x8 ../lib/lib.a(malloc.o)
 .group         0x0000000000000000        0x8 ../lib/lib.a(malloc.o)
 .text.__x86.get_pc_thunk.ax
                0x0000000000000000        0x4 ../lib/lib.a(malloc.o)
 .text.__x86.get_pc_thunk.bx
                0x0000000000000000        0x4 ../lib/lib.a(malloc.o)
 .group         0x0000000000000000        0x8 ../lib/lib.a(string.o)
 .text.__x86.get_pc_thunk.ax
                0x0000000000000000        0x4 ../lib/lib.a(string.o)

Memory Configuration

Name             Origin             Length             Attributes
*default*        0x0000000000000000 0xffffffffffffffff

Linker script and memory map

                0x0000000020000000                . = 0x20000000

.text           0x0000000020000000     0x54c4
                0x0000000020000000        0x4 LONG 0x47b853
                0x0000000020000004        0x4 LONG 0xe3890000
                0x0000000020000008        0x4 LONG 0x8c381
                0x000000002000000c        0x4 LONG 0x30cd0000
 *(.text)
 .text          0x0000000020000010      0x6c8 merge.o
                0x0000000020000010                insertionsort
                0x00000000200000c0                partition
                0x0000000020000160                quicksort
                0x0000000020000240                merge
                0x00000000200003d0                thread_func
 *fill*         0x00000000200006d8        0x8 
 .text          0x00000000200006e0      0x3dc ../lib/lib.a(syscallib.o)
                0x00000000200006e0                open
                0x00000000200006eb                close
                0x00000000200006f6                read
                0x0000000020000701                write
                0x000000002000070c                lseek
                0x0000000020000717                mkdir
                0x0000000020000722                rmdir
                0x000000002000072d                chdir
                0x0000000020000738                creat
                0x0000000020000743                rename
                0x000000002000074e                opendir_internal
                0x0000000020000759                closedir_internal
                0x0000000020000764                readdir
                0x000000002000076f                stat
                0x000000002000077a                unlink
                0x0000000020000785                chmod
                0x0000000020000790                dup
                0x000000002000079b                dup2
                0x00000000200007a6                setcursor
                0x00000000200007b1                getchar
                0x00000000200007bc                getchare
                0x00000000200007c7                getscanchar
                0x00000000200007d2                putchar
                0x00000000200007dd                puts
                0x0000000020000809                readblocks
                0x0000000020000814                writeblocks
                0x000000002000081f                sync
                0x000000002000082a                txpkt
                0x0000000020000835                rxpkt
                0x0000000020000840                tsleep
                0x000000002000084b                tsendto
                0x0000000020000856                exectask
                0x0000000020000861                trecvfrom
                0x000000002000086c                exit
                0x0000000020000877                pthread_create
                0x0000000020000882                pthread_exit
                0x000000002000088d                pthread_join
                0x0000000020000898                pthread_detach
                0x00000000200008a3                pthread_yield
                0x00000000200008ae                pthread_mutex_init
                0x00000000200008b9                pthread_mutex_trylock
                0x00000000200008c4                pthread_mutex_lock
                0x00000000200008cf                pthread_mutex_unlock
                0x00000000200008da                pthread_cond_init
                0x00000000200008e5                pthread_cond_wait
                0x00000000200008f0                pthread_cond_signal
                0x00000000200008fb                pthread_cond_broadcast
                0x0000000020000906                pthread_barrier_init
                0x0000000020000911                pthread_barrier_wait
                0x000000002000091c                socket
                0x0000000020000927                bind
                0x0000000020000932                recv
                0x000000002000093d                recvfrom
                0x0000000020000948                send
                0x0000000020000953                sendto
                0x000000002000095e                connect
                0x0000000020000969                accept
                0x0000000020000974                listen
                0x000000002000097f                kill
                0x000000002000098a                getprocinfo
                0x0000000020000995                getpids
                0x00000000200009a0                sem_init
                0x00000000200009ab                sem_destroy_internal
                0x00000000200009b6                sem_openv
                0x00000000200009c1                sem_close_internal
                0x00000000200009cc                sem_unlink
                0x00000000200009d7                sem_wait
                0x00000000200009e2                sem_trywait
                0x00000000200009ed                sem_timedwait
                0x00000000200009f8                sem_post
                0x0000000020000a03                sem_getvalue
                0x0000000020000a0e                time
                0x0000000020000a19                pthread_self
                0x0000000020000a24                brk_internal
                0x0000000020000a2c                gettsc
                0x0000000020000a34                memstatus
                0x0000000020000a3c                _wait
                0x0000000020000a44                pageinfo
                0x0000000020000a4c                machid
                0x0000000020000a54                getcharf
                0x0000000020000a5c                ungetcharf
                0x0000000020000a64                broadcast
                0x0000000020000a6c                primalloc_internal
                0x0000000020000a74                prifree_internal
                0x0000000020000a7c                lscr
                0x0000000020000a84                gotoscr
                0x0000000020000a8c                marktsc
                0x0000000020000a94                timed
                0x0000000020000a9c                pthread_mutex_destroy
                0x0000000020000aa4                make_intr
 .text          0x0000000020000abc     0x19a9 ../lib/lib.a(vsprintf.o)
                0x0000000020001a60                vsprintf
                0x000000002000200e                sprintf
                0x0000000020002047                printf
                0x00000000200023d9                fcvtbuf
                0x000000002000241f                ecvtbuf
 .text          0x0000000020002465      0xc5d ../lib/lib.a(mathfunc.o)
                0x0000000020002465                abs
                0x000000002000249d                modf
                0x00000000200024ef                floor
                0x00000000200025f5                pow
                0x0000000020002747                log
                0x000000002000278d                ldexp
                0x00000000200027d2                exp
                0x000000002000293b                sqrt
                0x00000000200029cc                atan2
                0x0000000020002c56                atan
                0x0000000020002cb2                asin
                0x0000000020002d89                acos
                0x0000000020002de9                cos
                0x0000000020002e35                sin
                0x0000000020003040                tan
                0x000000002000308d                fabs
 .text          0x00000000200030c2      0x437 ../lib/lib.a(strtol.o)
                0x00000000200033b5                strtol
                0x00000000200033dc                strtoul
                0x0000000020003403                atol
                0x00000000200034d9                atoi
 .text          0x00000000200034f9      0x9e3 ../lib/lib.a(library.o)
                0x00000000200034f9                getc
                0x0000000020003530                fgetc
                0x0000000020003550                ungetc
                0x0000000020003582                gets
                0x00000000200035f2                fgets
                0x0000000020003676                fopen
                0x0000000020003794                fclose
                0x00000000200037e1                memcpy
                0x0000000020003819                memmove
                0x0000000020003841                readline
                0x0000000020003c7e                htonl
                0x0000000020003c8d                htons
                0x0000000020003caa                err_dump
                0x0000000020003ce2                inet_addr
                0x0000000020003d90                perror
                0x0000000020003dbc                fork
                0x0000000020003dcc                getenv
                0x0000000020003eb9                abort
 .text          0x0000000020003edc      0xace ../lib/lib.a(malloc.o)
                0x0000000020003edc                ucheck_release_core
                0x0000000020003f84                uinsert_avail_node
                0x000000002000419e                udelete_avail_node
                0x000000002000422e                ucreate_mem_list_node
                0x00000000200043b3                malloc
                0x00000000200046a2                free
                0x000000002000478f                brk
                0x00000000200047de                primalloc
                0x000000002000482d                prifree
                0x0000000020004880                calloc
                0x00000000200048d3                realloc
 .text          0x00000000200049aa      0x713 ../lib/lib.a(string.o)
                0x00000000200049aa                strcpy
                0x0000000020004a17                strcat
                0x0000000020004a98                strcmp
                0x0000000020004b29                strlen
                0x0000000020004b5e                strnlen
                0x0000000020004b9f                strncpy
                0x0000000020004c18                strncat
                0x0000000020004ca4                strncmp
                0x0000000020004d44                toupper
                0x0000000020004d75                tolower
                0x0000000020004da6                isspace
                0x0000000020004dd1                isalpha
                0x0000000020004e03                isnum
                0x0000000020004e27                isdigit
                0x0000000020004e4b                isxdigit
                0x0000000020004e8b                strstr
                0x0000000020004edd                strchr
                0x0000000020004f1e                strcasecmp
                0x0000000020004fe6                strncasecmp
 *fill*         0x00000000200050bd        0x3 
 .text          0x00000000200050c0       0xc1 ../lib/lib.a(pow.o)
                0x00000000200050c0                pow_internal
                0x00000000200050f9                _abs
                0x0000000020005104                round
                0x000000002000510f                madd
                0x000000002000511c                ylog2x
                0x000000002000512b                ceil
                0x000000002000513f                p2xminus1
                0x000000002000514a                p2xstary
                0x0000000020005165                frexp
 *fill*         0x0000000020005181        0xf 
 .text          0x0000000020005190       0xdd ../lib/lib.a(klib.o)
                0x0000000020005190                in_byte
                0x000000002000519b                in_word
                0x00000000200051a7                out_byte
                0x00000000200051b5                out_word
                0x00000000200051c4                bzero
                0x00000000200051e5                memset
                0x0000000020005208                memcmp
                0x0000000020005244                bcopy
 *(.fixup)
 *(.kstrtab)
 *(.rodata)
 *fill*         0x000000002000526d        0x3 
 .rodata        0x0000000020005270      0x188 ../lib/lib.a(vsprintf.o)
 .rodata        0x00000000200053f8       0x50 ../lib/lib.a(mathfunc.o)
 .rodata        0x0000000020005448       0x26 ../lib/lib.a(library.o)
 *fill*         0x000000002000546e        0x2 
 .rodata        0x0000000020005470       0x54 ../lib/lib.a(malloc.o)

.text.startup   0x00000000200054d0      0x268
 .text.startup  0x00000000200054d0      0x268 merge.o
                0x00000000200054d0                main

.text.__x86.get_pc_thunk.bx
                0x0000000020005738        0x4
 .text.__x86.get_pc_thunk.bx
                0x0000000020005738        0x4 merge.o
                0x0000000020005738                __x86.get_pc_thunk.bx

.text.__x86.get_pc_thunk.si
                0x000000002000573c        0x4
 .text.__x86.get_pc_thunk.si
                0x000000002000573c        0x4 merge.o
                0x000000002000573c                __x86.get_pc_thunk.si

.text.__x86.get_pc_thunk.di
                0x0000000020005740        0x4
 .text.__x86.get_pc_thunk.di
                0x0000000020005740        0x4 merge.o
                0x0000000020005740                __x86.get_pc_thunk.di

.iplt           0x0000000020005744        0x0
 .iplt          0x0000000020005744        0x0 merge.o

.text.__x86.get_pc_thunk.ax
                0x0000000020005744        0x4
 .text.__x86.get_pc_thunk.ax
                0x0000000020005744        0x4 ../lib/lib.a(vsprintf.o)
                0x0000000020005744                __x86.get_pc_thunk.ax

.text.__x86.get_pc_thunk.cx
                0x0000000020005748        0x4
 .text.__x86.get_pc_thunk.cx
                0x0000000020005748        0x4 ../lib/lib.a(vsprintf.o)
                0x0000000020005748                __x86.get_pc_thunk.cx

.rodata.str1.1  0x000000002000574c       0x16
 .rodata.str1.1
                0x000000002000574c       0x16 merge.o

.rodata.str1.4  0x0000000020005764       0xdb
 .rodata.str1.4
                0x0000000020005764       0xdb merge.o

.eh_frame       0x0000000020005840     0x149c
 .eh_frame      0x0000000020005840      0x2f8 merge.o
 .eh_frame      0x0000000020005b38      0x3e0 ../lib/lib.a(vsprintf.o)
                                        0x40c (size before relaxing)
 .eh_frame      0x0000000020005f18      0x3ec ../lib/lib.a(mathfunc.o)
                                        0x42c (size before relaxing)
 .eh_frame      0x0000000020006304       0xf0 ../lib/lib.a(strtol.o)
                                        0x130 (size before relaxing)
 .eh_frame      0x00000000200063f4      0x3a8 ../lib/lib.a(library.o)
                                        0x3e8 (size before relaxing)
 .eh_frame      0x000000002000679c      0x310 ../lib/lib.a(malloc.o)
                                        0x350 (size before relaxing)
 .eh_frame      0x0000000020006aac      0x230 ../lib/lib.a(string.o)
                                        0x25c (size before relaxing)

.rel.dyn        0x0000000020006cdc        0x0
 .rel.got       0x0000000020006cdc        0x0 merge.o
 .rel.iplt      0x0000000020006cdc        0x0 merge.o
                0x0000000024000000                . = 0x24000000

.data           0x0000000024000000      0x1a6
 *(.data)
 .data          0x0000000024000000      0x100 merge.o
                0x0000000024000000                args
 .data          0x0000000024000100        0x0 ../lib/lib.a(vsprintf.o)
 .data          0x0000000024000100       0x98 ../lib/lib.a(mathfunc.o)
 .data          0x0000000024000198        0x0 ../lib/lib.a(strtol.o)
 .data          0x0000000024000198        0x0 ../lib/lib.a(library.o)
 .data          0x0000000024000198        0x0 ../lib/lib.a(malloc.o)
 .data          0x0000000024000198        0x0 ../lib/lib.a(string.o)
 .data          0x0000000024000198        0x8 ../lib/lib.a(pow.o)
 .data          0x00000000240001a0        0x6 ../lib/lib.a(klib.o)

.got            0x00000000240001a8        0x0
 .got           0x00000000240001a8        0x0 merge.o

.got.plt        0x00000000240001a8        0xc
 .got.plt       0x00000000240001a8        0xc merge.o
                0x00000000240001a8                _GLOBAL_OFFSET_TABLE_

.igot.plt       0x00000000240001b4        0x0
 .igot.plt      0x00000000240001b4        0x0 merge.o

.data.rel.local
                0x00000000240001b4        0x8
 .data.rel.local
                0x00000000240001b4        0x8 ../lib/lib.a(vsprintf.o)

.bss            0x0000000024001000  0x28040a4
 *(.bss)
 .bss           0x0000000024001000  0x2804000 merge.o
                0x0000000024001000                jcount
                0x0000000024001004                b
                0x000000002400101c                barr
                0x0000000024001040                mut1
                0x0000000024001064                cond
                0x0000000024001080                mut
                0x00000000240010a4                N
                0x0000000024002000                P
                0x0000000024003000                sort_complete
                0x0000000024004000                count
                0x0000000024005000                templist
                0x0000000025405000                A
 .bss           0x0000000026805000        0x0 ../lib/lib.a(vsprintf.o)
 .bss           0x0000000026805000        0x0 ../lib/lib.a(mathfunc.o)
 .bss           0x0000000026805000        0x4 ../lib/lib.a(strtol.o)
                0x0000000026805000                errno
 .bss           0x0000000026805004        0x0 ../lib/lib.a(library.o)
 *fill*         0x0000000026805004       0x1c 
 .bss           0x0000000026805020       0x84 ../lib/lib.a(malloc.o)
                0x0000000026805020                umem_info
                0x000000002680502c                enddataaddr
                0x0000000026805040                __malloc_mutex
                0x0000000026805080                __brk_mutex
 .bss           0x00000000268050a4        0x0 ../lib/lib.a(string.o)
 *(COMMON)
LOAD merge.o
LOAD ../lib/lib.a
OUTPUT(merge elf32-i386)

.comment        0x0000000000000000       0x1f
 .comment       0x0000000000000000       0x1f merge.o
                                         0x20 (size before relaxing)
 .comment       0x000000000000001f       0x20 ../lib/lib.a(vsprintf.o)
 .comment       0x000000000000001f       0x20 ../lib/lib.a(mathfunc.o)
 .comment       0x000000000000001f       0x20 ../lib/lib.a(strtol.o)
 .comment       0x000000000000001f       0x20 ../lib/lib.a(library.o)
 .comment       0x000000000000001f       0x20 ../lib/lib.a(malloc.o)
 .comment       0x000000000000001f       0x20 ../lib/lib.a(string.o)

.note.GNU-stack
                0x0000000000000000        0x0
 .note.GNU-stack
                0x0000000000000000        0x0 merge.o
 .note.GNU-stack
                0x0000000000000000        0x0 ../lib/lib.a(vsprintf.o)
 .note.GNU-stack
                0x0000000000000000        0x0 ../lib/lib.a(mathfunc.o)
 .note.GNU-stack
                0x0000000000000000        0x0 ../lib/lib.a(strtol.o)
 .note.GNU-stack
                0x0000000000000000        0x0 ../lib/lib.a(library.o)
 .note.GNU-stack
                0x0000000000000000        0x0 ../lib/lib.a(malloc.o)
 .note.GNU-stack
                0x0000000000000000        0x0 ../lib/lib.a(string.o)
