Archive member included to satisfy reference by file (symbol)

../lib/lib.a(malloc.o)        seive2.o (malloc)
../lib/lib.a(syscallib.o)     seive2.o (exit)
../lib/lib.a(vsprintf.o)      seive2.o (printf)
../lib/lib.a(mathfunc.o)      ../lib/lib.a(vsprintf.o) (modf)
../lib/lib.a(strtol.o)        seive2.o (atoi)
../lib/lib.a(klib.o)          ../lib/lib.a(malloc.o) (bzero)
../lib/lib.a(library.o)       ../lib/lib.a(vsprintf.o) (memcpy)
../lib/lib.a(string.o)        ../lib/lib.a(vsprintf.o) (strlen)
../lib/lib.a(pow.o)           ../lib/lib.a(mathfunc.o) (_abs)

Discarded input sections

 .group         0x0000000000000000        0x8 seive2.o
 .group         0x0000000000000000        0x8 seive2.o
 .group         0x0000000000000000        0x8 ../lib/lib.a(malloc.o)
 .group         0x0000000000000000        0x8 ../lib/lib.a(malloc.o)
 .text.__x86.get_pc_thunk.bx
                0x0000000000000000        0x4 ../lib/lib.a(malloc.o)
 .group         0x0000000000000000        0x8 ../lib/lib.a(vsprintf.o)
 .group         0x0000000000000000        0x8 ../lib/lib.a(vsprintf.o)
 .group         0x0000000000000000        0x8 ../lib/lib.a(vsprintf.o)
 .text.__x86.get_pc_thunk.ax
                0x0000000000000000        0x4 ../lib/lib.a(vsprintf.o)
 .text.__x86.get_pc_thunk.bx
                0x0000000000000000        0x4 ../lib/lib.a(vsprintf.o)
 .group         0x0000000000000000        0x8 ../lib/lib.a(mathfunc.o)
 .group         0x0000000000000000        0x8 ../lib/lib.a(mathfunc.o)
 .text.__x86.get_pc_thunk.ax
                0x0000000000000000        0x4 ../lib/lib.a(mathfunc.o)
 .text.__x86.get_pc_thunk.bx
                0x0000000000000000        0x4 ../lib/lib.a(mathfunc.o)
 .group         0x0000000000000000        0x8 ../lib/lib.a(strtol.o)
 .group         0x0000000000000000        0x8 ../lib/lib.a(strtol.o)
 .text.__x86.get_pc_thunk.ax
                0x0000000000000000        0x4 ../lib/lib.a(strtol.o)
 .text.__x86.get_pc_thunk.bx
                0x0000000000000000        0x4 ../lib/lib.a(strtol.o)
 .group         0x0000000000000000        0x8 ../lib/lib.a(library.o)
 .group         0x0000000000000000        0x8 ../lib/lib.a(library.o)
 .text.__x86.get_pc_thunk.ax
                0x0000000000000000        0x4 ../lib/lib.a(library.o)
 .text.__x86.get_pc_thunk.bx
                0x0000000000000000        0x4 ../lib/lib.a(library.o)
 .group         0x0000000000000000        0x8 ../lib/lib.a(string.o)
 .text.__x86.get_pc_thunk.ax
                0x0000000000000000        0x4 ../lib/lib.a(string.o)

Memory Configuration

Name             Origin             Length             Attributes
*default*        0x0000000000000000 0xffffffffffffffff

Linker script and memory map

                0x0000000020000000                . = 0x20000000

.text           0x0000000020000000     0x50a6
                0x0000000020000000        0x4 LONG 0x47b853
                0x0000000020000004        0x4 LONG 0xe3890000
                0x0000000020000008        0x4 LONG 0x8c381
                0x000000002000000c        0x4 LONG 0x30cd0000
 *(.text)
 .text          0x0000000020000010      0x2b2 seive2.o
                0x0000000020000010                strike_factors
 .text          0x00000000200002c2      0xace ../lib/lib.a(malloc.o)
                0x00000000200002c2                ucheck_release_core
                0x000000002000036a                uinsert_avail_node
                0x0000000020000584                udelete_avail_node
                0x0000000020000614                ucreate_mem_list_node
                0x0000000020000799                malloc
                0x0000000020000a88                free
                0x0000000020000b75                brk
                0x0000000020000bc4                primalloc
                0x0000000020000c13                prifree
                0x0000000020000c66                calloc
                0x0000000020000cb9                realloc
 .text          0x0000000020000d90      0x3dc ../lib/lib.a(syscallib.o)
                0x0000000020000d90                open
                0x0000000020000d9b                close
                0x0000000020000da6                read
                0x0000000020000db1                write
                0x0000000020000dbc                lseek
                0x0000000020000dc7                mkdir
                0x0000000020000dd2                rmdir
                0x0000000020000ddd                chdir
                0x0000000020000de8                creat
                0x0000000020000df3                rename
                0x0000000020000dfe                opendir_internal
                0x0000000020000e09                closedir_internal
                0x0000000020000e14                readdir
                0x0000000020000e1f                stat
                0x0000000020000e2a                unlink
                0x0000000020000e35                chmod
                0x0000000020000e40                dup
                0x0000000020000e4b                dup2
                0x0000000020000e56                setcursor
                0x0000000020000e61                getchar
                0x0000000020000e6c                getchare
                0x0000000020000e77                getscanchar
                0x0000000020000e82                putchar
                0x0000000020000e8d                puts
                0x0000000020000eb9                readblocks
                0x0000000020000ec4                writeblocks
                0x0000000020000ecf                sync
                0x0000000020000eda                txpkt
                0x0000000020000ee5                rxpkt
                0x0000000020000ef0                tsleep
                0x0000000020000efb                tsendto
                0x0000000020000f06                exectask
                0x0000000020000f11                trecvfrom
                0x0000000020000f1c                exit
                0x0000000020000f27                pthread_create
                0x0000000020000f32                pthread_exit
                0x0000000020000f3d                pthread_join
                0x0000000020000f48                pthread_detach
                0x0000000020000f53                pthread_yield
                0x0000000020000f5e                pthread_mutex_init
                0x0000000020000f69                pthread_mutex_trylock
                0x0000000020000f74                pthread_mutex_lock
                0x0000000020000f7f                pthread_mutex_unlock
                0x0000000020000f8a                pthread_cond_init
                0x0000000020000f95                pthread_cond_wait
                0x0000000020000fa0                pthread_cond_signal
                0x0000000020000fab                pthread_cond_broadcast
                0x0000000020000fb6                pthread_barrier_init
                0x0000000020000fc1                pthread_barrier_wait
                0x0000000020000fcc                socket
                0x0000000020000fd7                bind
                0x0000000020000fe2                recv
                0x0000000020000fed                recvfrom
                0x0000000020000ff8                send
                0x0000000020001003                sendto
                0x000000002000100e                connect
                0x0000000020001019                accept
                0x0000000020001024                listen
                0x000000002000102f                kill
                0x000000002000103a                getprocinfo
                0x0000000020001045                getpids
                0x0000000020001050                sem_init
                0x000000002000105b                sem_destroy_internal
                0x0000000020001066                sem_openv
                0x0000000020001071                sem_close_internal
                0x000000002000107c                sem_unlink
                0x0000000020001087                sem_wait
                0x0000000020001092                sem_trywait
                0x000000002000109d                sem_timedwait
                0x00000000200010a8                sem_post
                0x00000000200010b3                sem_getvalue
                0x00000000200010be                time
                0x00000000200010c9                pthread_self
                0x00000000200010d4                brk_internal
                0x00000000200010dc                gettsc
                0x00000000200010e4                memstatus
                0x00000000200010ec                _wait
                0x00000000200010f4                pageinfo
                0x00000000200010fc                machid
                0x0000000020001104                getcharf
                0x000000002000110c                ungetcharf
                0x0000000020001114                broadcast
                0x000000002000111c                primalloc_internal
                0x0000000020001124                prifree_internal
                0x000000002000112c                lscr
                0x0000000020001134                gotoscr
                0x000000002000113c                marktsc
                0x0000000020001144                timed
                0x000000002000114c                pthread_mutex_destroy
                0x0000000020001154                make_intr
 .text          0x000000002000116c     0x19a9 ../lib/lib.a(vsprintf.o)
                0x0000000020002110                vsprintf
                0x00000000200026be                sprintf
                0x00000000200026f7                printf
                0x0000000020002a89                fcvtbuf
                0x0000000020002acf                ecvtbuf
 .text          0x0000000020002b15      0xc5d ../lib/lib.a(mathfunc.o)
                0x0000000020002b15                abs
                0x0000000020002b4d                modf
                0x0000000020002b9f                floor
                0x0000000020002ca5                pow
                0x0000000020002df7                log
                0x0000000020002e3d                ldexp
                0x0000000020002e82                exp
                0x0000000020002feb                sqrt
                0x000000002000307c                atan2
                0x0000000020003306                atan
                0x0000000020003362                asin
                0x0000000020003439                acos
                0x0000000020003499                cos
                0x00000000200034e5                sin
                0x00000000200036f0                tan
                0x000000002000373d                fabs
 .text          0x0000000020003772      0x437 ../lib/lib.a(strtol.o)
                0x0000000020003a65                strtol
                0x0000000020003a8c                strtoul
                0x0000000020003ab3                atol
                0x0000000020003b89                atoi
 *fill*         0x0000000020003ba9        0x7 
 .text          0x0000000020003bb0       0xdd ../lib/lib.a(klib.o)
                0x0000000020003bb0                in_byte
                0x0000000020003bbb                in_word
                0x0000000020003bc7                out_byte
                0x0000000020003bd5                out_word
                0x0000000020003be4                bzero
                0x0000000020003c05                memset
                0x0000000020003c28                memcmp
                0x0000000020003c64                bcopy
 .text          0x0000000020003c8d      0x9e3 ../lib/lib.a(library.o)
                0x0000000020003c8d                getc
                0x0000000020003cc4                fgetc
                0x0000000020003ce4                ungetc
                0x0000000020003d16                gets
                0x0000000020003d86                fgets
                0x0000000020003e0a                fopen
                0x0000000020003f28                fclose
                0x0000000020003f75                memcpy
                0x0000000020003fad                memmove
                0x0000000020003fd5                readline
                0x0000000020004412                htonl
                0x0000000020004421                htons
                0x000000002000443e                err_dump
                0x0000000020004476                inet_addr
                0x0000000020004524                perror
                0x0000000020004550                fork
                0x0000000020004560                getenv
                0x000000002000464d                abort
 .text          0x0000000020004670      0x713 ../lib/lib.a(string.o)
                0x0000000020004670                strcpy
                0x00000000200046dd                strcat
                0x000000002000475e                strcmp
                0x00000000200047ef                strlen
                0x0000000020004824                strnlen
                0x0000000020004865                strncpy
                0x00000000200048de                strncat
                0x000000002000496a                strncmp
                0x0000000020004a0a                toupper
                0x0000000020004a3b                tolower
                0x0000000020004a6c                isspace
                0x0000000020004a97                isalpha
                0x0000000020004ac9                isnum
                0x0000000020004aed                isdigit
                0x0000000020004b11                isxdigit
                0x0000000020004b51                strstr
                0x0000000020004ba3                strchr
                0x0000000020004be4                strcasecmp
                0x0000000020004cac                strncasecmp
 *fill*         0x0000000020004d83        0xd 
 .text          0x0000000020004d90       0xc1 ../lib/lib.a(pow.o)
                0x0000000020004d90                pow_internal
                0x0000000020004dc9                _abs
                0x0000000020004dd4                round
                0x0000000020004ddf                madd
                0x0000000020004dec                ylog2x
                0x0000000020004dfb                ceil
                0x0000000020004e0f                p2xminus1
                0x0000000020004e1a                p2xstary
                0x0000000020004e35                frexp
 *(.fixup)
 *(.kstrtab)
 *(.rodata)
 *fill*         0x0000000020004e51        0x3 
 .rodata        0x0000000020004e54       0x54 ../lib/lib.a(malloc.o)
 .rodata        0x0000000020004ea8      0x188 ../lib/lib.a(vsprintf.o)
 .rodata        0x0000000020005030       0x50 ../lib/lib.a(mathfunc.o)
 .rodata        0x0000000020005080       0x26 ../lib/lib.a(library.o)

.text.startup   0x00000000200050b0      0x191
 .text.startup  0x00000000200050b0      0x191 seive2.o
                0x00000000200050b0                main

.text.__x86.get_pc_thunk.bx
                0x0000000020005241        0x4
 .text.__x86.get_pc_thunk.bx
                0x0000000020005241        0x4 seive2.o
                0x0000000020005241                __x86.get_pc_thunk.bx

.text.__x86.get_pc_thunk.bp
                0x0000000020005245        0x4
 .text.__x86.get_pc_thunk.bp
                0x0000000020005245        0x4 seive2.o
                0x0000000020005245                __x86.get_pc_thunk.bp

.iplt           0x0000000020005249        0x0
 .iplt          0x0000000020005249        0x0 seive2.o

.text.__x86.get_pc_thunk.ax
                0x0000000020005249        0x4
 .text.__x86.get_pc_thunk.ax
                0x0000000020005249        0x4 ../lib/lib.a(malloc.o)
                0x0000000020005249                __x86.get_pc_thunk.ax

.text.__x86.get_pc_thunk.cx
                0x000000002000524d        0x4
 .text.__x86.get_pc_thunk.cx
                0x000000002000524d        0x4 ../lib/lib.a(vsprintf.o)
                0x000000002000524d                __x86.get_pc_thunk.cx

.rodata.str1.4  0x0000000020005254       0x4f
 .rodata.str1.4
                0x0000000020005254       0x4f seive2.o

.rodata.str1.1  0x00000000200052a3       0x24
 .rodata.str1.1
                0x00000000200052a3       0x24 seive2.o

.eh_frame       0x00000000200052c8     0x12a4
 .eh_frame      0x00000000200052c8      0x100 seive2.o
 .eh_frame      0x00000000200053c8      0x324 ../lib/lib.a(malloc.o)
                                        0x350 (size before relaxing)
 .eh_frame      0x00000000200056ec      0x3cc ../lib/lib.a(vsprintf.o)
                                        0x40c (size before relaxing)
 .eh_frame      0x0000000020005ab8      0x3ec ../lib/lib.a(mathfunc.o)
                                        0x42c (size before relaxing)
 .eh_frame      0x0000000020005ea4       0xf0 ../lib/lib.a(strtol.o)
                                        0x130 (size before relaxing)
 .eh_frame      0x0000000020005f94      0x3a8 ../lib/lib.a(library.o)
                                        0x3e8 (size before relaxing)
 .eh_frame      0x000000002000633c      0x230 ../lib/lib.a(string.o)
                                        0x25c (size before relaxing)

.rel.dyn        0x000000002000656c        0x0
 .rel.got       0x000000002000656c        0x0 seive2.o
 .rel.iplt      0x000000002000656c        0x0 seive2.o
                0x0000000024000000                . = 0x24000000

.data           0x0000000024000000      0x1a8
 *(.data)
 .data          0x0000000024000000      0x100 seive2.o
                0x0000000024000000                args
 .data          0x0000000024000100        0x0 ../lib/lib.a(malloc.o)
 .data          0x0000000024000100        0x0 ../lib/lib.a(vsprintf.o)
 .data          0x0000000024000100       0x98 ../lib/lib.a(mathfunc.o)
 .data          0x0000000024000198        0x0 ../lib/lib.a(strtol.o)
 .data          0x0000000024000198        0x6 ../lib/lib.a(klib.o)
 .data          0x000000002400019e        0x0 ../lib/lib.a(library.o)
 .data          0x000000002400019e        0x0 ../lib/lib.a(string.o)
 *fill*         0x000000002400019e        0x2 
 .data          0x00000000240001a0        0x8 ../lib/lib.a(pow.o)

.got            0x00000000240001a8        0x0
 .got           0x00000000240001a8        0x0 seive2.o

.got.plt        0x00000000240001a8        0xc
 .got.plt       0x00000000240001a8        0xc seive2.o
                0x00000000240001a8                _GLOBAL_OFFSET_TABLE_

.igot.plt       0x00000000240001b4        0x0
 .igot.plt      0x00000000240001b4        0x0 seive2.o

.data.rel.local
                0x00000000240001b4        0x8
 .data.rel.local
                0x00000000240001b4        0x8 ../lib/lib.a(vsprintf.o)

.bss            0x00000000240001c0       0xc8
 *(.bss)
 .bss           0x00000000240001c0       0x24 seive2.o
                0x00000000240001c0                barr
                0x00000000240001d8                prime
                0x00000000240001dc                N
                0x00000000240001e0                P
 *fill*         0x00000000240001e4       0x1c 
 .bss           0x0000000024000200       0x84 ../lib/lib.a(malloc.o)
                0x0000000024000200                umem_info
                0x000000002400020c                enddataaddr
                0x0000000024000220                __malloc_mutex
                0x0000000024000260                __brk_mutex
 .bss           0x0000000024000284        0x0 ../lib/lib.a(vsprintf.o)
 .bss           0x0000000024000284        0x0 ../lib/lib.a(mathfunc.o)
 .bss           0x0000000024000284        0x4 ../lib/lib.a(strtol.o)
                0x0000000024000284                errno
 .bss           0x0000000024000288        0x0 ../lib/lib.a(library.o)
 .bss           0x0000000024000288        0x0 ../lib/lib.a(string.o)
 *(COMMON)
LOAD seive2.o
LOAD ../lib/lib.a
OUTPUT(seive2 elf32-i386)

.comment        0x0000000000000000       0x1f
 .comment       0x0000000000000000       0x1f seive2.o
                                         0x20 (size before relaxing)
 .comment       0x000000000000001f       0x20 ../lib/lib.a(malloc.o)
 .comment       0x000000000000001f       0x20 ../lib/lib.a(vsprintf.o)
 .comment       0x000000000000001f       0x20 ../lib/lib.a(mathfunc.o)
 .comment       0x000000000000001f       0x20 ../lib/lib.a(strtol.o)
 .comment       0x000000000000001f       0x20 ../lib/lib.a(library.o)
 .comment       0x000000000000001f       0x20 ../lib/lib.a(string.o)

.note.GNU-stack
                0x0000000000000000        0x0
 .note.GNU-stack
                0x0000000000000000        0x0 seive2.o
 .note.GNU-stack
                0x0000000000000000        0x0 ../lib/lib.a(malloc.o)
 .note.GNU-stack
                0x0000000000000000        0x0 ../lib/lib.a(vsprintf.o)
 .note.GNU-stack
                0x0000000000000000        0x0 ../lib/lib.a(mathfunc.o)
 .note.GNU-stack
                0x0000000000000000        0x0 ../lib/lib.a(strtol.o)
 .note.GNU-stack
                0x0000000000000000        0x0 ../lib/lib.a(library.o)
 .note.GNU-stack
                0x0000000000000000        0x0 ../lib/lib.a(string.o)
