Archive member included to satisfy reference by file (symbol)

../lib/lib.a(datetime.o)      shell.o (secs_to_date)
../lib/lib.a(string.o)        shell.o (strcpy)
../lib/lib.a(syscallwrap.o)   shell.o (opendir)
../lib/lib.a(syscallib.o)     shell.o (open)
../lib/lib.a(vsprintf.o)      shell.o (sprintf)
../lib/lib.a(mathfunc.o)      ../lib/lib.a(vsprintf.o) (modf)
../lib/lib.a(klib.o)          ../lib/lib.a(syscallwrap.o) (bzero)
../lib/lib.a(library.o)       ../lib/lib.a(vsprintf.o) (memcpy)
../lib/lib.a(malloc.o)        ../lib/lib.a(syscallwrap.o) (malloc)
../lib/lib.a(pow.o)           ../lib/lib.a(mathfunc.o) (_abs)

Discarded input sections

 .group         0x0000000000000000        0x8 shell.o
 .group         0x0000000000000000        0x8 shell.o
 .group         0x0000000000000000        0x8 shell.o
 .group         0x0000000000000000        0x8 ../lib/lib.a(datetime.o)
 .text.__x86.get_pc_thunk.ax
                0x0000000000000000        0x4 ../lib/lib.a(datetime.o)
 .group         0x0000000000000000        0x8 ../lib/lib.a(string.o)
 .text.__x86.get_pc_thunk.ax
                0x0000000000000000        0x4 ../lib/lib.a(string.o)
 .group         0x0000000000000000        0x8 ../lib/lib.a(syscallwrap.o)
 .group         0x0000000000000000        0x8 ../lib/lib.a(syscallwrap.o)
 .text.__x86.get_pc_thunk.ax
                0x0000000000000000        0x4 ../lib/lib.a(syscallwrap.o)
 .text.__x86.get_pc_thunk.bx
                0x0000000000000000        0x4 ../lib/lib.a(syscallwrap.o)
 .group         0x0000000000000000        0x8 ../lib/lib.a(vsprintf.o)
 .group         0x0000000000000000        0x8 ../lib/lib.a(vsprintf.o)
 .group         0x0000000000000000        0x8 ../lib/lib.a(vsprintf.o)
 .text.__x86.get_pc_thunk.ax
                0x0000000000000000        0x4 ../lib/lib.a(vsprintf.o)
 .text.__x86.get_pc_thunk.bx
                0x0000000000000000        0x4 ../lib/lib.a(vsprintf.o)
 .group         0x0000000000000000        0x8 ../lib/lib.a(mathfunc.o)
 .group         0x0000000000000000        0x8 ../lib/lib.a(mathfunc.o)
 .text.__x86.get_pc_thunk.ax
                0x0000000000000000        0x4 ../lib/lib.a(mathfunc.o)
 .text.__x86.get_pc_thunk.bx
                0x0000000000000000        0x4 ../lib/lib.a(mathfunc.o)
 .group         0x0000000000000000        0x8 ../lib/lib.a(library.o)
 .group         0x0000000000000000        0x8 ../lib/lib.a(library.o)
 .text.__x86.get_pc_thunk.ax
                0x0000000000000000        0x4 ../lib/lib.a(library.o)
 .text.__x86.get_pc_thunk.bx
                0x0000000000000000        0x4 ../lib/lib.a(library.o)
 .group         0x0000000000000000        0x8 ../lib/lib.a(malloc.o)
 .group         0x0000000000000000        0x8 ../lib/lib.a(malloc.o)
 .text.__x86.get_pc_thunk.ax
                0x0000000000000000        0x4 ../lib/lib.a(malloc.o)
 .text.__x86.get_pc_thunk.bx
                0x0000000000000000        0x4 ../lib/lib.a(malloc.o)

Memory Configuration

Name             Origin             Length             Attributes
*default*        0x0000000000000000 0xffffffffffffffff

Linker script and memory map

                0x0000000020000000                . = 0x20000000

.text           0x0000000020000000     0x8594
                0x0000000020000000        0x4 LONG 0x47b853
                0x0000000020000004        0x4 LONG 0xe3890000
                0x0000000020000008        0x4 LONG 0x8c381
                0x000000002000000c        0x4 LONG 0x30cd0000
 *(.text)
 .text          0x0000000020000010     0x34e9 shell.o
                0x0000000020000010                my_exit
                0x0000000020000020                pwd
                0x0000000020000050                help
                0x0000000020000820                mem
                0x0000000020000840                exec
                0x0000000020000910                id
                0x0000000020000930                tim
                0x0000000020000990                listscr
                0x00000000200009b0                tail
                0x0000000020000bd0                ps
                0x0000000020000d10                rdir
                0x0000000020000d80                killp
                0x0000000020000e50                prelease
                0x0000000020000f60                ls
                0x00000000200013a0                gotoscreen
                0x0000000020001420                pginfo
                0x00000000200015c0                setpwd
                0x00000000200015f0                print_error
                0x00000000200019a0                md
                0x0000000020001a50                wc
                0x0000000020002040                split
                0x0000000020002080                rm
                0x00000000200021b0                head
                0x0000000020002390                touch
                0x0000000020002420                cat
                0x0000000020002510                catb
                0x0000000020002620                chartonum
                0x0000000020002680                modifypwd
                0x00000000200027d0                cd
                0x00000000200028b0                cp
                0x00000000200029c0                chartime
                0x0000000020002a30                tomode
                0x0000000020002a90                power
                0x0000000020002ac0                parse_path
                0x0000000020003030                mv
                0x0000000020003490                copy
 .text          0x00000000200034f9      0x3e3 ../lib/lib.a(datetime.o)
                0x00000000200034f9                secs_to_date
                0x000000002000374f                date_to_secs
                0x00000000200038bc                asctime
                0x00000000200038cc                localtime
 .text          0x00000000200038dc      0x713 ../lib/lib.a(string.o)
                0x00000000200038dc                strcpy
                0x0000000020003949                strcat
                0x00000000200039ca                strcmp
                0x0000000020003a5b                strlen
                0x0000000020003a90                strnlen
                0x0000000020003ad1                strncpy
                0x0000000020003b4a                strncat
                0x0000000020003bd6                strncmp
                0x0000000020003c76                toupper
                0x0000000020003ca7                tolower
                0x0000000020003cd8                isspace
                0x0000000020003d03                isalpha
                0x0000000020003d35                isnum
                0x0000000020003d59                isdigit
                0x0000000020003d7d                isxdigit
                0x0000000020003dbd                strstr
                0x0000000020003e0f                strchr
                0x0000000020003e50                strcasecmp
                0x0000000020003f18                strncasecmp
 .text          0x0000000020003fef      0x287 ../lib/lib.a(syscallwrap.o)
                0x0000000020003fef                opendir
                0x000000002000406a                closedir
                0x00000000200040b3                sem_open
                0x0000000020004161                sem_close
                0x00000000200041a2                sem_destroy
                0x00000000200041e3                pthread_barrier_spl
                0x0000000020004220                uname
                0x0000000020004230                debug_mesg
 *fill*         0x0000000020004276        0xa 
 .text          0x0000000020004280      0x3dc ../lib/lib.a(syscallib.o)
                0x0000000020004280                open
                0x000000002000428b                close
                0x0000000020004296                read
                0x00000000200042a1                write
                0x00000000200042ac                lseek
                0x00000000200042b7                mkdir
                0x00000000200042c2                rmdir
                0x00000000200042cd                chdir
                0x00000000200042d8                creat
                0x00000000200042e3                rename
                0x00000000200042ee                opendir_internal
                0x00000000200042f9                closedir_internal
                0x0000000020004304                readdir
                0x000000002000430f                stat
                0x000000002000431a                unlink
                0x0000000020004325                chmod
                0x0000000020004330                dup
                0x000000002000433b                dup2
                0x0000000020004346                setcursor
                0x0000000020004351                getchar
                0x000000002000435c                getchare
                0x0000000020004367                getscanchar
                0x0000000020004372                putchar
                0x000000002000437d                puts
                0x00000000200043a9                readblocks
                0x00000000200043b4                writeblocks
                0x00000000200043bf                sync
                0x00000000200043ca                txpkt
                0x00000000200043d5                rxpkt
                0x00000000200043e0                tsleep
                0x00000000200043eb                tsendto
                0x00000000200043f6                exectask
                0x0000000020004401                trecvfrom
                0x000000002000440c                exit
                0x0000000020004417                pthread_create
                0x0000000020004422                pthread_exit
                0x000000002000442d                pthread_join
                0x0000000020004438                pthread_detach
                0x0000000020004443                pthread_yield
                0x000000002000444e                pthread_mutex_init
                0x0000000020004459                pthread_mutex_trylock
                0x0000000020004464                pthread_mutex_lock
                0x000000002000446f                pthread_mutex_unlock
                0x000000002000447a                pthread_cond_init
                0x0000000020004485                pthread_cond_wait
                0x0000000020004490                pthread_cond_signal
                0x000000002000449b                pthread_cond_broadcast
                0x00000000200044a6                pthread_barrier_init
                0x00000000200044b1                pthread_barrier_wait
                0x00000000200044bc                socket
                0x00000000200044c7                bind
                0x00000000200044d2                recv
                0x00000000200044dd                recvfrom
                0x00000000200044e8                send
                0x00000000200044f3                sendto
                0x00000000200044fe                connect
                0x0000000020004509                accept
                0x0000000020004514                listen
                0x000000002000451f                kill
                0x000000002000452a                getprocinfo
                0x0000000020004535                getpids
                0x0000000020004540                sem_init
                0x000000002000454b                sem_destroy_internal
                0x0000000020004556                sem_openv
                0x0000000020004561                sem_close_internal
                0x000000002000456c                sem_unlink
                0x0000000020004577                sem_wait
                0x0000000020004582                sem_trywait
                0x000000002000458d                sem_timedwait
                0x0000000020004598                sem_post
                0x00000000200045a3                sem_getvalue
                0x00000000200045ae                time
                0x00000000200045b9                pthread_self
                0x00000000200045c4                brk_internal
                0x00000000200045cc                gettsc
                0x00000000200045d4                memstatus
                0x00000000200045dc                _wait
                0x00000000200045e4                pageinfo
                0x00000000200045ec                machid
                0x00000000200045f4                getcharf
                0x00000000200045fc                ungetcharf
                0x0000000020004604                broadcast
                0x000000002000460c                primalloc_internal
                0x0000000020004614                prifree_internal
                0x000000002000461c                lscr
                0x0000000020004624                gotoscr
                0x000000002000462c                marktsc
                0x0000000020004634                timed
                0x000000002000463c                pthread_mutex_destroy
                0x0000000020004644                make_intr
 .text          0x000000002000465c     0x19a9 ../lib/lib.a(vsprintf.o)
                0x0000000020005600                vsprintf
                0x0000000020005bae                sprintf
                0x0000000020005be7                printf
                0x0000000020005f79                fcvtbuf
                0x0000000020005fbf                ecvtbuf
 .text          0x0000000020006005      0xc5d ../lib/lib.a(mathfunc.o)
                0x0000000020006005                abs
                0x000000002000603d                modf
                0x000000002000608f                floor
                0x0000000020006195                pow
                0x00000000200062e7                log
                0x000000002000632d                ldexp
                0x0000000020006372                exp
                0x00000000200064db                sqrt
                0x000000002000656c                atan2
                0x00000000200067f6                atan
                0x0000000020006852                asin
                0x0000000020006929                acos
                0x0000000020006989                cos
                0x00000000200069d5                sin
                0x0000000020006be0                tan
                0x0000000020006c2d                fabs
 *fill*         0x0000000020006c62        0xe 
 .text          0x0000000020006c70       0xdd ../lib/lib.a(klib.o)
                0x0000000020006c70                in_byte
                0x0000000020006c7b                in_word
                0x0000000020006c87                out_byte
                0x0000000020006c95                out_word
                0x0000000020006ca4                bzero
                0x0000000020006cc5                memset
                0x0000000020006ce8                memcmp
                0x0000000020006d24                bcopy
 .text          0x0000000020006d4d      0x9e3 ../lib/lib.a(library.o)
                0x0000000020006d4d                getc
                0x0000000020006d84                fgetc
                0x0000000020006da4                ungetc
                0x0000000020006dd6                gets
                0x0000000020006e46                fgets
                0x0000000020006eca                fopen
                0x0000000020006fe8                fclose
                0x0000000020007035                memcpy
                0x000000002000706d                memmove
                0x0000000020007095                readline
                0x00000000200074d2                htonl
                0x00000000200074e1                htons
                0x00000000200074fe                err_dump
                0x0000000020007536                inet_addr
                0x00000000200075e4                perror
                0x0000000020007610                fork
                0x0000000020007620                getenv
                0x000000002000770d                abort
 .text          0x0000000020007730      0xace ../lib/lib.a(malloc.o)
                0x0000000020007730                ucheck_release_core
                0x00000000200077d8                uinsert_avail_node
                0x00000000200079f2                udelete_avail_node
                0x0000000020007a82                ucreate_mem_list_node
                0x0000000020007c07                malloc
                0x0000000020007ef6                free
                0x0000000020007fe3                brk
                0x0000000020008032                primalloc
                0x0000000020008081                prifree
                0x00000000200080d4                calloc
                0x0000000020008127                realloc
 *fill*         0x00000000200081fe        0x2 
 .text          0x0000000020008200       0xc1 ../lib/lib.a(pow.o)
                0x0000000020008200                pow_internal
                0x0000000020008239                _abs
                0x0000000020008244                round
                0x000000002000824f                madd
                0x000000002000825c                ylog2x
                0x000000002000826b                ceil
                0x000000002000827f                p2xminus1
                0x000000002000828a                p2xstary
                0x00000000200082a5                frexp
 *(.fixup)
 *(.kstrtab)
 *(.rodata)
 *fill*         0x00000000200082c1        0x3 
 .rodata        0x00000000200082c4       0x6c shell.o
 .rodata        0x0000000020008330        0xd ../lib/lib.a(syscallwrap.o)
 *fill*         0x000000002000833d        0x3 
 .rodata        0x0000000020008340      0x188 ../lib/lib.a(vsprintf.o)
 .rodata        0x00000000200084c8       0x50 ../lib/lib.a(mathfunc.o)
 .rodata        0x0000000020008518       0x26 ../lib/lib.a(library.o)
 *fill*         0x000000002000853e        0x2 
 .rodata        0x0000000020008540       0x54 ../lib/lib.a(malloc.o)

.text.startup   0x00000000200085a0      0x71a
 .text.startup  0x00000000200085a0      0x71a shell.o
                0x00000000200085a0                main

.text.__x86.get_pc_thunk.ax
                0x0000000020008cba        0x4
 .text.__x86.get_pc_thunk.ax
                0x0000000020008cba        0x4 shell.o
                0x0000000020008cba                __x86.get_pc_thunk.ax

.text.__x86.get_pc_thunk.bx
                0x0000000020008cbe        0x4
 .text.__x86.get_pc_thunk.bx
                0x0000000020008cbe        0x4 shell.o
                0x0000000020008cbe                __x86.get_pc_thunk.bx

.text.__x86.get_pc_thunk.bp
                0x0000000020008cc2        0x4
 .text.__x86.get_pc_thunk.bp
                0x0000000020008cc2        0x4 shell.o
                0x0000000020008cc2                __x86.get_pc_thunk.bp

.iplt           0x0000000020008cc6        0x0
 .iplt          0x0000000020008cc6        0x0 shell.o

.text.__x86.get_pc_thunk.cx
                0x0000000020008cc6        0x4
 .text.__x86.get_pc_thunk.cx
                0x0000000020008cc6        0x4 ../lib/lib.a(vsprintf.o)
                0x0000000020008cc6                __x86.get_pc_thunk.cx

.rodata.str1.1  0x0000000020008cca      0x586
 .rodata.str1.1
                0x0000000020008cca      0x586 shell.o
                                        0x5b4 (size before relaxing)

.rodata.str1.4  0x0000000020009250      0xb13
 .rodata.str1.4
                0x0000000020009250      0xb13 shell.o

.eh_frame       0x0000000020009d64     0x2a40
 .eh_frame      0x0000000020009d64     0x1798 shell.o
 .eh_frame      0x000000002000b4fc       0x60 ../lib/lib.a(datetime.o)
                                         0x8c (size before relaxing)
 .eh_frame      0x000000002000b55c      0x230 ../lib/lib.a(string.o)
                                        0x25c (size before relaxing)
 .eh_frame      0x000000002000b78c      0x1a8 ../lib/lib.a(syscallwrap.o)
                                        0x1e8 (size before relaxing)
 .eh_frame      0x000000002000b934      0x3cc ../lib/lib.a(vsprintf.o)
                                        0x40c (size before relaxing)
 .eh_frame      0x000000002000bd00      0x3ec ../lib/lib.a(mathfunc.o)
                                        0x42c (size before relaxing)
 .eh_frame      0x000000002000c0ec      0x3a8 ../lib/lib.a(library.o)
                                        0x3e8 (size before relaxing)
 .eh_frame      0x000000002000c494      0x310 ../lib/lib.a(malloc.o)
                                        0x350 (size before relaxing)

.rel.dyn        0x000000002000c7a4        0x0
 .rel.got       0x000000002000c7a4        0x0 shell.o
 .rel.iplt      0x000000002000c7a4        0x0 shell.o
                0x0000000024000000                . = 0x24000000

.data           0x0000000024000000       0xb0
 *(.data)
 .data          0x0000000024000000        0x4 shell.o
                0x0000000024000000                no_cmds
 .data          0x0000000024000004        0x0 ../lib/lib.a(datetime.o)
 .data          0x0000000024000004        0x0 ../lib/lib.a(string.o)
 .data          0x0000000024000004        0x0 ../lib/lib.a(syscallwrap.o)
 .data          0x0000000024000004        0x0 ../lib/lib.a(vsprintf.o)
 *fill*         0x0000000024000004        0x4 
 .data          0x0000000024000008       0x98 ../lib/lib.a(mathfunc.o)
 .data          0x00000000240000a0        0x6 ../lib/lib.a(klib.o)
 .data          0x00000000240000a6        0x0 ../lib/lib.a(library.o)
 .data          0x00000000240000a6        0x0 ../lib/lib.a(malloc.o)
 *fill*         0x00000000240000a6        0x2 
 .data          0x00000000240000a8        0x8 ../lib/lib.a(pow.o)

.data.rel.local
                0x00000000240000c0      0x290
 .data.rel.local
                0x00000000240000c0      0x288 shell.o
                0x00000000240000c0                envp
                0x00000000240001a0                funcnames
                0x0000000024000280                funcptrs
 .data.rel.local
                0x0000000024000348        0x8 ../lib/lib.a(vsprintf.o)

.got            0x0000000024000350        0x0
 .got           0x0000000024000350        0x0 shell.o

.got.plt        0x0000000024000350        0xc
 .got.plt       0x0000000024000350        0xc shell.o
                0x0000000024000350                _GLOBAL_OFFSET_TABLE_

.igot.plt       0x000000002400035c        0x0
 .igot.plt      0x000000002400035c        0x0 shell.o

.bss            0x0000000024000360     0x6464
 *(.bss)
 .bss           0x0000000024000360     0x63e0 shell.o
                0x0000000024000360                current_drive
                0x0000000024000380                p
                0x0000000024006540                PWD
 .bss           0x0000000024006740        0x0 ../lib/lib.a(datetime.o)
 .bss           0x0000000024006740        0x0 ../lib/lib.a(string.o)
 .bss           0x0000000024006740        0x0 ../lib/lib.a(syscallwrap.o)
 .bss           0x0000000024006740        0x0 ../lib/lib.a(vsprintf.o)
 .bss           0x0000000024006740        0x0 ../lib/lib.a(mathfunc.o)
 .bss           0x0000000024006740        0x0 ../lib/lib.a(library.o)
 .bss           0x0000000024006740       0x84 ../lib/lib.a(malloc.o)
                0x0000000024006740                umem_info
                0x000000002400674c                enddataaddr
                0x0000000024006760                __malloc_mutex
                0x00000000240067a0                __brk_mutex
 *(COMMON)
LOAD shell.o
LOAD ../lib/lib.a
OUTPUT(shell elf32-i386)

.comment        0x0000000000000000       0x1f
 .comment       0x0000000000000000       0x1f shell.o
                                         0x20 (size before relaxing)
 .comment       0x000000000000001f       0x20 ../lib/lib.a(datetime.o)
 .comment       0x000000000000001f       0x20 ../lib/lib.a(string.o)
 .comment       0x000000000000001f       0x20 ../lib/lib.a(syscallwrap.o)
 .comment       0x000000000000001f       0x20 ../lib/lib.a(vsprintf.o)
 .comment       0x000000000000001f       0x20 ../lib/lib.a(mathfunc.o)
 .comment       0x000000000000001f       0x20 ../lib/lib.a(library.o)
 .comment       0x000000000000001f       0x20 ../lib/lib.a(malloc.o)

.note.GNU-stack
                0x0000000000000000        0x0
 .note.GNU-stack
                0x0000000000000000        0x0 shell.o
 .note.GNU-stack
                0x0000000000000000        0x0 ../lib/lib.a(datetime.o)
 .note.GNU-stack
                0x0000000000000000        0x0 ../lib/lib.a(string.o)
 .note.GNU-stack
                0x0000000000000000        0x0 ../lib/lib.a(syscallwrap.o)
 .note.GNU-stack
                0x0000000000000000        0x0 ../lib/lib.a(vsprintf.o)
 .note.GNU-stack
                0x0000000000000000        0x0 ../lib/lib.a(mathfunc.o)
 .note.GNU-stack
                0x0000000000000000        0x0 ../lib/lib.a(library.o)
 .note.GNU-stack
                0x0000000000000000        0x0 ../lib/lib.a(malloc.o)
